target datalayout = "e-m:e-p270:32:32-p271:32:32-p272:64:64-i64:64-i128:128-f80:128-n8:16:32:64-S128"
target triple = "x86_64-pc-linux-gnu"

%struct._lv_slider_t = type { %struct._lv_bar_t, %struct.lv_area_t, %struct.lv_area_t, %struct.lv_point_t, ptr, i8 }
%struct._lv_bar_t = type { %struct._lv_obj_t, i32, i32, i32, i32, %struct.lv_area_t, i8, %struct._lv_bar_anim_t, %struct._lv_bar_anim_t, i8 }
%struct._lv_obj_t = type { ptr, ptr, ptr, ptr, ptr, %struct.lv_area_t, i32, i16, i16 }
%struct._lv_bar_anim_t = type { ptr, i32, i32, i32 }
%struct.lv_area_t = type { i32, i32, i32, i32 }
%struct.lv_point_t = type { i32, i32 }

; Function Attrs: nounwind uwtable
define internal void @lv_slider_constructor(ptr noundef %0, ptr noundef %1) #0 {
  %3 = alloca ptr, align 8
  %4 = alloca ptr, align 8
  %5 = alloca ptr, align 8
  store ptr %0, ptr %3, align 8, !tbaa !3
  store ptr %1, ptr %4, align 8, !tbaa !8
  call void @llvm.lifetime.start.p0(i64 8, ptr %5) #4
  %6 = load ptr, ptr %4, align 8, !tbaa !8
  store ptr %6, ptr %5, align 8, !tbaa !10
  %7 = load ptr, ptr %5, align 8, !tbaa !10
  %8 = getelementptr inbounds nuw %struct._lv_slider_t, ptr %7, i32 0, i32 4
  store ptr null, ptr %8, align 8, !tbaa !12
  %9 = load ptr, ptr %5, align 8, !tbaa !10
  %10 = getelementptr inbounds nuw %struct._lv_slider_t, ptr %9, i32 0, i32 5
  %11 = load i8, ptr %10, align 8
  %12 = and i8 %11, -2
  %13 = or i8 %12, 0
  store i8 %13, ptr %10, align 8
  %14 = load ptr, ptr %5, align 8, !tbaa !10
  %15 = getelementptr inbounds nuw %struct._lv_slider_t, ptr %14, i32 0, i32 5
  %16 = load i8, ptr %15, align 8
  %17 = and i8 %16, -3
  %18 = or i8 %17, 0
  store i8 %18, ptr %15, align 8
  %19 = load ptr, ptr %4, align 8, !tbaa !8
  call void @lv_obj_remove_flag(ptr noundef %19, i32 noundef 256)
  %20 = load ptr, ptr %4, align 8, !tbaa !8
  call void @lv_obj_remove_flag(ptr noundef %20, i32 noundef 16)
  %21 = load ptr, ptr %4, align 8, !tbaa !8
  call void @lv_obj_add_flag(ptr noundef %21, i32 noundef 1024)
  %22 = load ptr, ptr %4, align 8, !tbaa !8
  %23 = call i32 @lv_display_get_dpi(ptr noundef null)
  %24 = mul nsw i32 %23, 8
  %25 = add nsw i32 %24, 80
  %26 = sdiv i32 %25, 160
  %27 = icmp sgt i32 %26, 1
  br i1 %27, label %28, label %33

28:                                               ; preds = %2
  %29 = call i32 @lv_display_get_dpi(ptr noundef null)
  %30 = mul nsw i32 %29, 8
  %31 = add nsw i32 %30, 80
  %32 = sdiv i32 %31, 160
  br label %34

33:                                               ; preds = %2
  br label %34

34:                                               ; preds = %33, %28
  %35 = phi i32 [ %32, %28 ], [ 1, %33 ]
  call void @lv_obj_set_ext_click_area(ptr noundef %22, i32 noundef %35)
  call void @llvm.lifetime.end.p0(i64 8, ptr %5) #4
  ret void
}