; Function Attrs: nounwind uwtable
define internal void @lv_slider_constructor(ptr readnone captures(none) %0, ptr noundef initializes((200, 208)) %1) #0 {
  %3 = getelementptr inbounds nuw i8, ptr %1, i64 200
  store ptr null, ptr %3, align 8, !tbaa !3
  %4 = getelementptr inbounds nuw i8, ptr %1, i64 208
  %5 = load i8, ptr %4, align 8
  %6 = and i8 %5, -4
  store i8 %6, ptr %4, align 8
  tail call void @lv_obj_remove_flag(ptr noundef %1, i32 noundef 256) #5
  tail call void @lv_obj_remove_flag(ptr noundef %1, i32 noundef 16) #5
  tail call void @lv_obj_add_flag(ptr noundef %1, i32 noundef 1024) #5
  %7 = tail call i32 @lv_display_get_dpi(ptr noundef null) #5
  %8 = icmp sgt i32 %7, 29
  br i1 %8, label %9, label %14

9:                                                ; preds = %2
  %10 = tail call i32 @lv_display_get_dpi(ptr noundef null) #5
  %11 = shl nsw i32 %10, 3
  %12 = add nsw i32 %11, 80
  %13 = sdiv i32 %12, 160
  br label %14

14:                                               ; preds = %2, %9
  %15 = phi i32 [ %13, %9 ], [ 1, %2 ]
  tail call void @lv_obj_set_ext_click_area(ptr noundef nonnull %1, i32 noundef %15) #5
  ret void
}